target datalayout = "e-m:e-p270:32:32-p271:32:32-p272:64:64-i64:64-i128:128-f80:128-n8:16:32:64-S128"
target triple = "x86_64-pc-linux-gnu"

%struct.archive_read_disk = type { %struct.archive, ptr, i8, i8, ptr, ptr, ptr, ptr, i32, ptr, ptr, ptr, ptr, ptr, ptr, ptr, ptr, ptr, ptr, ptr }
%struct.archive = type { i32, i32, ptr, i32, ptr, i32, i32, ptr, %struct.archive_string, ptr, i32, i32, ptr, ptr, i64, i64, i64, i8, i64 }
%struct.archive_string = type { ptr, i64, i64 }
%struct.tree = type { ptr, ptr, ptr, ptr, i32, i32, i32, %struct.archive_string, ptr, i64, i32, i32, i32, i32, i32, %struct.stat, %struct.stat, i32, i32, %struct.restore_time, ptr, ptr, i32, i32, i8, i8, ptr, ptr, i32, i32, i32, i32, i32, i32, i64, i64, ptr, i64 }
%struct.stat = type { i64, i64, i64, i32, i32, i32, i32, i64, i64, i64, i64, %struct.timespec, %struct.timespec, %struct.timespec, [3 x i64] }
%struct.timespec = type { i64, i64 }
%struct.restore_time = type { ptr, i64, i64, i64, i64, i32, i32 }
%struct.tree_entry = type { i32, ptr, ptr, %struct.archive_string, i64, i64, i64, i32, i32, i32, %struct.restore_time }

@.str.18 = private unnamed_addr constant [19 x i8] c"archive_read_close\00", align 1

; Function Attrs: nounwind uwtable
define internal void @tree_pop(ptr noundef %0) #0 {
  %2 = alloca ptr, align 8
  %3 = alloca ptr, align 8
  store ptr %0, ptr %2, align 8
  %4 = load ptr, ptr %2, align 8
  %5 = getelementptr inbounds %struct.tree, ptr %4, i32 0, i32 7
  %6 = getelementptr inbounds %struct.archive_string, ptr %5, i32 0, i32 0
  %7 = load ptr, ptr %6, align 8
  %8 = load ptr, ptr %2, align 8
  %9 = getelementptr inbounds %struct.tree, ptr %8, i32 0, i32 9
  %10 = load i64, ptr %9, align 8
  %11 = getelementptr inbounds i8, ptr %7, i64 %10
  store i8 0, ptr %11, align 1
  %12 = load ptr, ptr %2, align 8
  %13 = getelementptr inbounds %struct.tree, ptr %12, i32 0, i32 9
  %14 = load i64, ptr %13, align 8
  %15 = load ptr, ptr %2, align 8
  %16 = getelementptr inbounds %struct.tree, ptr %15, i32 0, i32 7
  %17 = getelementptr inbounds %struct.archive_string, ptr %16, i32 0, i32 1
  store i64 %14, ptr %17, align 8
  %18 = load ptr, ptr %2, align 8
  %19 = getelementptr inbounds %struct.tree, ptr %18, i32 0, i32 0
  %20 = load ptr, ptr %19, align 8
  %21 = load ptr, ptr %2, align 8
  %22 = getelementptr inbounds %struct.tree, ptr %21, i32 0, i32 1
  %23 = load ptr, ptr %22, align 8
  %24 = icmp eq ptr %20, %23
  br i1 %24, label %25, label %38

25:                                               ; preds = %1
  %26 = load ptr, ptr %2, align 8
  %27 = getelementptr inbounds %struct.tree, ptr %26, i32 0, i32 1
  %28 = load ptr, ptr %27, align 8
  %29 = icmp ne ptr %28, null
  br i1 %29, label %30, label %38

30:                                               ; preds = %25
  %31 = load ptr, ptr %2, align 8
  %32 = getelementptr inbounds %struct.tree, ptr %31, i32 0, i32 1
  %33 = load ptr, ptr %32, align 8
  %34 = getelementptr inbounds %struct.tree_entry, ptr %33, i32 0, i32 2
  %35 = load ptr, ptr %34, align 8
  %36 = load ptr, ptr %2, align 8
  %37 = getelementptr inbounds %struct.tree, ptr %36, i32 0, i32 1
  store ptr %35, ptr %37, align 8
  br label %38

38:                                               ; preds = %30, %25, %1
  %39 = load ptr, ptr %2, align 8
  %40 = getelementptr inbounds %struct.tree, ptr %39, i32 0, i32 0
  %41 = load ptr, ptr %40, align 8
  store ptr %41, ptr %3, align 8
  %42 = load ptr, ptr %3, align 8
  %43 = getelementptr inbounds %struct.tree_entry, ptr %42, i32 0, i32 1
  %44 = load ptr, ptr %43, align 8
  %45 = load ptr, ptr %2, align 8
  %46 = getelementptr inbounds %struct.tree, ptr %45, i32 0, i32 0
  store ptr %44, ptr %46, align 8
  %47 = load ptr, ptr %3, align 8
  %48 = getelementptr inbounds %struct.tree_entry, ptr %47, i32 0, i32 4
  %49 = load i64, ptr %48, align 8
  %50 = load ptr, ptr %2, align 8
  %51 = getelementptr inbounds %struct.tree, ptr %50, i32 0, i32 9
  store i64 %49, ptr %51, align 8
  %52 = load ptr, ptr %2, align 8
  %53 = getelementptr inbounds %struct.tree, ptr %52, i32 0, i32 7
  %54 = getelementptr inbounds %struct.archive_string, ptr %53, i32 0, i32 0
  %55 = load ptr, ptr %54, align 8
  %56 = load ptr, ptr %2, align 8
  %57 = getelementptr inbounds %struct.tree, ptr %56, i32 0, i32 9
  %58 = load i64, ptr %57, align 8
  %59 = getelementptr inbounds i8, ptr %55, i64 %58
  %60 = load ptr, ptr %2, align 8
  %61 = getelementptr inbounds %struct.tree, ptr %60, i32 0, i32 8
  store ptr %59, ptr %61, align 8
  br label %62

62:                                               ; preds = %70, %38
  %63 = load ptr, ptr %2, align 8
  %64 = getelementptr inbounds %struct.tree, ptr %63, i32 0, i32 8
  %65 = load ptr, ptr %64, align 8
  %66 = getelementptr inbounds i8, ptr %65, i64 0
  %67 = load i8, ptr %66, align 1
  %68 = sext i8 %67 to i32
  %69 = icmp eq i32 %68, 47
  br i1 %69, label %70, label %75

70:                                               ; preds = %62
  %71 = load ptr, ptr %2, align 8
  %72 = getelementptr inbounds %struct.tree, ptr %71, i32 0, i32 8
  %73 = load ptr, ptr %72, align 8
  %74 = getelementptr inbounds i8, ptr %73, i32 1
  store ptr %74, ptr %72, align 8
  br label %62, !llvm.loop !7

75:                                               ; preds = %62
  %76 = load ptr, ptr %3, align 8
  %77 = getelementptr inbounds %struct.tree_entry, ptr %76, i32 0, i32 3
  call void @archive_string_free(ptr noundef %77)
  %78 = load ptr, ptr %3, align 8
  call void @free(ptr noundef %78) #10
  ret void
}

; Function Attrs: nounwind uwtable
define internal void @tree_close(ptr noundef %0) #0 {
  %2 = alloca ptr, align 8
  store ptr %0, ptr %2, align 8
  %3 = load ptr, ptr %2, align 8
  %4 = icmp eq ptr %3, null
  br i1 %4, label %5, label %6

5:                                                ; preds = %1
  br label %80

6:                                                ; preds = %1
  %7 = load ptr, ptr %2, align 8
  %8 = getelementptr inbounds %struct.tree, ptr %7, i32 0, i32 32
  %9 = load i32, ptr %8, align 8
  %10 = icmp sge i32 %9, 0
  br i1 %10, label %11, label %21

11:                                               ; preds = %6
  %12 = load ptr, ptr %2, align 8
  %13 = getelementptr inbounds %struct.tree, ptr %12, i32 0, i32 32
  %14 = load i32, ptr %13, align 8
  %15 = load ptr, ptr %2, align 8
  %16 = load ptr, ptr %2, align 8
  %17 = getelementptr inbounds %struct.tree, ptr %16, i32 0, i32 19
  %18 = call i32 @close_and_restore_time(i32 noundef %14, ptr noundef %15, ptr noundef %17)
  %19 = load ptr, ptr %2, align 8
  %20 = getelementptr inbounds %struct.tree, ptr %19, i32 0, i32 32
  store i32 -1, ptr %20, align 8
  br label %21

21:                                               ; preds = %11, %6
  %22 = load ptr, ptr %2, align 8
  %23 = getelementptr inbounds %struct.tree, ptr %22, i32 0, i32 2
  %24 = load ptr, ptr %23, align 8
  %25 = icmp ne ptr %24, null
  br i1 %25, label %26, label %33

26:                                               ; preds = %21
  %27 = load ptr, ptr %2, align 8
  %28 = getelementptr inbounds %struct.tree, ptr %27, i32 0, i32 2
  %29 = load ptr, ptr %28, align 8
  %30 = call i32 @closedir(ptr noundef %29)
  %31 = load ptr, ptr %2, align 8
  %32 = getelementptr inbounds %struct.tree, ptr %31, i32 0, i32 2
  store ptr null, ptr %32, align 8
  br label %33

33:                                               ; preds = %26, %21
  br label %34

34:                                               ; preds = %54, %33
  %35 = load ptr, ptr %2, align 8
  %36 = getelementptr inbounds %struct.tree, ptr %35, i32 0, i32 0
  %37 = load ptr, ptr %36, align 8
  %38 = icmp ne ptr %37, null
  br i1 %38, label %39, label %56

39:                                               ; preds = %34
  %40 = load ptr, ptr %2, align 8
  %41 = getelementptr inbounds %struct.tree, ptr %40, i32 0, i32 0
  %42 = load ptr, ptr %41, align 8
  %43 = getelementptr inbounds %struct.tree_entry, ptr %42, i32 0, i32 7
  %44 = load i32, ptr %43, align 8
  %45 = and i32 %44, 2
  %46 = icmp ne i32 %45, 0
  br i1 %46, label %47, label %54

47:                                               ; preds = %39
  %48 = load ptr, ptr %2, align 8
  %49 = getelementptr inbounds %struct.tree, ptr %48, i32 0, i32 0
  %50 = load ptr, ptr %49, align 8
  %51 = getelementptr inbounds %struct.tree_entry, ptr %50, i32 0, i32 9
  %52 = load i32, ptr %51, align 8
  %53 = call i32 @close(i32 noundef %52)
  br label %54

54:                                               ; preds = %47, %39
  %55 = load ptr, ptr %2, align 8
  call void @tree_pop(ptr noundef %55)
  br label %34, !llvm.loop !5

56:                                               ; preds = %34
  %57 = load ptr, ptr %2, align 8
  %58 = getelementptr inbounds %struct.tree, ptr %57, i32 0, i32 14
  %59 = load i32, ptr %58, align 8
  %60 = icmp sge i32 %59, 0
  br i1 %60, label %61, label %68

61:                                               ; preds = %56
  %62 = load ptr, ptr %2, align 8
  %63 = getelementptr inbounds %struct.tree, ptr %62, i32 0, i32 14
  %64 = load i32, ptr %63, align 8
  %65 = call i32 @close(i32 noundef %64)
  %66 = load ptr, ptr %2, align 8
  %67 = getelementptr inbounds %struct.tree, ptr %66, i32 0, i32 14
  store i32 -1, ptr %67, align 8
  br label %68

68:                                               ; preds = %61, %56
  %69 = load ptr, ptr %2, align 8
  %70 = getelementptr inbounds %struct.tree, ptr %69, i32 0, i32 13
  %71 = load i32, ptr %70, align 4
  %72 = icmp sge i32 %71, 0
  br i1 %72, label %73, label %80

73:                                               ; preds = %68
  %74 = load ptr, ptr %2, align 8
  %75 = getelementptr inbounds %struct.tree, ptr %74, i32 0, i32 13
  %76 = load i32, ptr %75, align 4
  %77 = call i32 @close(i32 noundef %76)
  %78 = load ptr, ptr %2, align 8
  %79 = getelementptr inbounds %struct.tree, ptr %78, i32 0, i32 13
  store i32 -1, ptr %79, align 4
  br label %80

80:                                               ; preds = %73, %68, %5
  ret void
}

; Function Attrs: nounwind uwtable
define internal i32 @_archive_read_close(ptr noundef %0) #0 {
  %2 = alloca i32, align 4
  %3 = alloca ptr, align 8
  %4 = alloca ptr, align 8
  %5 = alloca i32, align 4
  store ptr %0, ptr %3, align 8
  %6 = load ptr, ptr %3, align 8
  store ptr %6, ptr %4, align 8
  br label %7

7:                                                ; preds = %1
  %8 = load ptr, ptr %3, align 8
  %9 = call i32 @__archive_check_magic(ptr noundef %8, i32 noundef 195932357, i32 noundef 65535, ptr noundef @.str.18)
  store i32 %9, ptr %5, align 4
  %10 = load i32, ptr %5, align 4
  %11 = icmp eq i32 %10, -30
  br i1 %11, label %12, label %13

12:                                               ; preds = %7
  store i32 -30, ptr %2, align 4
  br label %28

13:                                               ; preds = %7
  br label %14

14:                                               ; preds = %13
  %15 = load ptr, ptr %4, align 8
  %16 = getelementptr inbounds %struct.archive_read_disk, ptr %15, i32 0, i32 0
  %17 = getelementptr inbounds %struct.archive, ptr %16, i32 0, i32 1
  %18 = load i32, ptr %17, align 4
  %19 = icmp ne i32 %18, 32768
  br i1 %19, label %20, label %24

20:                                               ; preds = %14
  %21 = load ptr, ptr %4, align 8
  %22 = getelementptr inbounds %struct.archive_read_disk, ptr %21, i32 0, i32 0
  %23 = getelementptr inbounds %struct.archive, ptr %22, i32 0, i32 1
  store i32 32, ptr %23, align 4
  br label %24

24:                                               ; preds = %20, %14
  %25 = load ptr, ptr %4, align 8
  %26 = getelementptr inbounds %struct.archive_read_disk, ptr %25, i32 0, i32 4
  %27 = load ptr, ptr %26, align 8
  call void @tree_close(ptr noundef %27)
  store i32 0, ptr %2, align 4
  br label %28

28:                                               ; preds = %24, %12
  %29 = load i32, ptr %2, align 4
  ret i32 %29
}