; Function Attrs: nounwind uwtable
define internal range(i32 -30, 1) i32 @_archive_read_close(ptr noundef %0) #0 {
  %2 = tail call i32 @__archive_check_magic(ptr noundef %0, i32 noundef 195932357, i32 noundef 65535, ptr noundef nonnull @.str.18) #17
  %3 = icmp eq i32 %2, -30
  br i1 %3, label %tree_close.exit, label %4

4:                                                ; preds = %1
  %5 = getelementptr inbounds nuw i8, ptr %0, i64 4
  %6 = load i32, ptr %5, align 4
  %.not = icmp eq i32 %6, 32768
  br i1 %.not, label %8, label %7

7:                                                ; preds = %4
  store i32 32, ptr %5, align 4
  br label %8

8:                                                ; preds = %7, %4
  %9 = getelementptr inbounds nuw i8, ptr %0, i64 160
  %10 = load ptr, ptr %9, align 8
  %11 = icmp eq ptr %10, null
  br i1 %11, label %tree_close.exit, label %12

12:                                               ; preds = %8
  %13 = getelementptr inbounds nuw i8, ptr %10, i64 520
  %14 = load i32, ptr %13, align 8
  %15 = icmp sgt i32 %14, -1
  br i1 %15, label %16, label %18

16:                                               ; preds = %12
  %17 = getelementptr inbounds nuw i8, ptr %10, i64 408
  tail call fastcc void @close_and_restore_time(i32 noundef %14, ptr noundef nonnull %10, ptr noundef nonnull %17)
  store i32 -1, ptr %13, align 8
  br label %18

18:                                               ; preds = %16, %12
  %19 = getelementptr inbounds nuw i8, ptr %10, i64 16
  %20 = load ptr, ptr %19, align 8
  %.not.i = icmp eq ptr %20, null
  br i1 %.not.i, label %23, label %21

21:                                               ; preds = %18
  %22 = tail call i32 @closedir(ptr noundef nonnull %20)
  store ptr null, ptr %19, align 8
  br label %23

23:                                               ; preds = %21, %18
  %24 = load ptr, ptr %10, align 8
  %.not2426.i = icmp eq ptr %24, null
  br i1 %.not2426.i, label %._crit_edge.i, label %.lr.ph.i

.lr.ph.i:                                         ; preds = %23
  %25 = getelementptr inbounds nuw i8, ptr %10, i64 48
  %26 = getelementptr inbounds nuw i8, ptr %10, i64 80
  %27 = getelementptr inbounds nuw i8, ptr %10, i64 56
  %28 = getelementptr inbounds nuw i8, ptr %10, i64 8
  %29 = getelementptr inbounds nuw i8, ptr %10, i64 72
  br label %30

30:                                               ; preds = %tree_pop.exit.i, %.lr.ph.i
  %31 = phi ptr [ %24, %.lr.ph.i ], [ %62, %tree_pop.exit.i ]
  %32 = getelementptr inbounds nuw i8, ptr %31, i64 72
  %33 = load i32, ptr %32, align 8
  %34 = and i32 %33, 2
  %.not25.i = icmp eq i32 %34, 0
  br i1 %.not25.i, label %39, label %35

35:                                               ; preds = %30
  %36 = getelementptr inbounds nuw i8, ptr %31, i64 80
  %37 = load i32, ptr %36, align 8
  %38 = tail call i32 @close(i32 noundef %37) #17
  br label %39

39:                                               ; preds = %35, %30
  %40 = load ptr, ptr %25, align 8
  %41 = load i64, ptr %26, align 8
  %42 = getelementptr inbounds i8, ptr %40, i64 %41
  store i8 0, ptr %42, align 1
  %43 = load i64, ptr %26, align 8
  store i64 %43, ptr %27, align 8
  %44 = load ptr, ptr %10, align 8
  %45 = load ptr, ptr %28, align 8
  %46 = icmp ne ptr %44, %45
  %.not.i.i = icmp eq ptr %45, null
  %or.cond.i.i = or i1 %46, %.not.i.i
  br i1 %or.cond.i.i, label %50, label %47

47:                                               ; preds = %39
  %48 = getelementptr inbounds nuw i8, ptr %45, i64 16
  %49 = load ptr, ptr %48, align 8
  store ptr %49, ptr %28, align 8
  br label %50

50:                                               ; preds = %47, %39
  %51 = getelementptr inbounds nuw i8, ptr %44, i64 8
  %52 = load ptr, ptr %51, align 8
  store ptr %52, ptr %10, align 8
  %53 = getelementptr inbounds nuw i8, ptr %44, i64 48
  %54 = load i64, ptr %53, align 8
  store i64 %54, ptr %26, align 8
  %55 = load ptr, ptr %25, align 8
  %56 = getelementptr inbounds i8, ptr %55, i64 %54
  br label %57

57:                                               ; preds = %57, %50
  %storemerge.i.i = phi ptr [ %56, %50 ], [ %60, %57 ]
  store ptr %storemerge.i.i, ptr %29, align 8
  %58 = load i8, ptr %storemerge.i.i, align 1
  %59 = icmp eq i8 %58, 47
  %60 = getelementptr inbounds nuw i8, ptr %storemerge.i.i, i64 1
  br i1 %59, label %57, label %tree_pop.exit.i, !llvm.loop !5

tree_pop.exit.i:                                  ; preds = %57
  %61 = getelementptr inbounds nuw i8, ptr %44, i64 24
  tail call void @archive_string_free(ptr noundef nonnull %61) #17
  tail call void @free(ptr noundef %44) #17
  %62 = load ptr, ptr %10, align 8
  %.not24.i = icmp eq ptr %62, null
  br i1 %.not24.i, label %._crit_edge.i, label %30, !llvm.loop !7

._crit_edge.i:                                    ; preds = %tree_pop.exit.i, %23
  %63 = getelementptr inbounds nuw i8, ptr %10, i64 104
  %64 = load i32, ptr %63, align 8
  %65 = icmp sgt i32 %64, -1
  br i1 %65, label %66, label %68

66:                                               ; preds = %._crit_edge.i
  %67 = tail call i32 @close(i32 noundef %64) #17
  store i32 -1, ptr %63, align 8
  br label %68

68:                                               ; preds = %66, %._crit_edge.i
  %69 = getelementptr inbounds nuw i8, ptr %10, i64 100
  %70 = load i32, ptr %69, align 4
  %71 = icmp sgt i32 %70, -1
  br i1 %71, label %72, label %tree_close.exit

72:                                               ; preds = %68
  %73 = tail call i32 @close(i32 noundef %70) #17
  store i32 -1, ptr %69, align 4
  br label %tree_close.exit

tree_close.exit:                                  ; preds = %72, %68, %8, %1
  %.0 = phi i32 [ -30, %1 ], [ 0, %8 ], [ 0, %68 ], [ 0, %72 ]
  ret i32 %.0
}